target datalayout = "e-m:e-p270:32:32-p271:32:32-p272:64:64-i64:64-i128:128-f80:128-n8:16:32:64-S128"
target triple = "x86_64-pc-linux-gnu"

%struct.X509_VERIFY_PARAM_st = type { ptr, i64, i64, i64, i32, i32, i32, ptr, ptr }

; Function Attrs: nounwind uwtable
define hidden i32 @X509_VERIFY_PARAM_add0_policy(ptr noundef %0, ptr noundef %1) #0 {
  %3 = alloca i32, align 4
  %4 = alloca ptr, align 8
  %5 = alloca ptr, align 8
  store ptr %0, ptr %4, align 8, !tbaa !6
  store ptr %1, ptr %5, align 8, !tbaa !39
  %6 = load ptr, ptr %4, align 8, !tbaa !6
  %7 = getelementptr inbounds nuw %struct.X509_VERIFY_PARAM_st, ptr %6, i32 0, i32 7
  %8 = load ptr, ptr %7, align 8, !tbaa !25
  %9 = icmp ne ptr %8, null
  br i1 %9, label %20, label %10

10:                                               ; preds = %2
  %11 = call ptr @sk_new_null()
  %12 = load ptr, ptr %4, align 8, !tbaa !6
  %13 = getelementptr inbounds nuw %struct.X509_VERIFY_PARAM_st, ptr %12, i32 0, i32 7
  store ptr %11, ptr %13, align 8, !tbaa !25
  %14 = load ptr, ptr %4, align 8, !tbaa !6
  %15 = getelementptr inbounds nuw %struct.X509_VERIFY_PARAM_st, ptr %14, i32 0, i32 7
  %16 = load ptr, ptr %15, align 8, !tbaa !25
  %17 = icmp ne ptr %16, null
  br i1 %17, label %19, label %18

18:                                               ; preds = %10
  store i32 0, ptr %3, align 4
  br label %29

19:                                               ; preds = %10
  br label %20

20:                                               ; preds = %19, %2
  %21 = load ptr, ptr %4, align 8, !tbaa !6
  %22 = getelementptr inbounds nuw %struct.X509_VERIFY_PARAM_st, ptr %21, i32 0, i32 7
  %23 = load ptr, ptr %22, align 8, !tbaa !25
  %24 = load ptr, ptr %5, align 8, !tbaa !39
  %25 = call i64 @sk_push(ptr noundef %23, ptr noundef %24)
  %26 = icmp ne i64 %25, 0
  br i1 %26, label %28, label %27

27:                                               ; preds = %20
  store i32 0, ptr %3, align 4
  br label %29

28:                                               ; preds = %20
  store i32 1, ptr %3, align 4
  br label %29

29:                                               ; preds = %28, %27, %18
  %30 = load i32, ptr %3, align 4
  ret i32 %30
}