; Function Attrs: nounwind uwtable
define hidden range(i32 0, 2) i32 @X509_VERIFY_PARAM_add0_policy(ptr noundef captures(none) %0, ptr noundef %1) local_unnamed_addr #0 {
  %3 = getelementptr inbounds nuw i8, ptr %0, i64 48
  %4 = load ptr, ptr %3, align 8, !tbaa !18
  %.not = icmp eq ptr %4, null
  br i1 %.not, label %5, label %7

5:                                                ; preds = %2
  %6 = tail call ptr @sk_new_null() #16
  store ptr %6, ptr %3, align 8, !tbaa !18
  %.not5 = icmp eq ptr %6, null
  br i1 %.not5, label %10, label %7

7:                                                ; preds = %5, %2
  %8 = phi ptr [ %6, %5 ], [ %4, %2 ]
  %9 = tail call i64 @sk_push(ptr noundef nonnull %8, ptr noundef %1) #16
  %.not6 = icmp ne i64 %9, 0
  %. = zext i1 %.not6 to i32
  br label %10

10:                                               ; preds = %7, %5
  %.0 = phi i32 [ 0, %5 ], [ %., %7 ]
  ret i32 %.0
}